; Function Attrs: mustprogress nounwind uwtable
define hidden void @_ZN8GraphKit17stop_and_kill_mapEv(ptr nocapture noundef nonnull align 8 dereferenceable(84) %0) local_unnamed_addr #0 align 2 {
  %2 = getelementptr inbounds i8, ptr %0, i64 40
  %3 = load ptr, ptr %2, align 8
  store ptr null, ptr %2, align 8
  %.not = icmp eq ptr %3, null
  br i1 %.not, label %7, label %4

4:                                                ; preds = %1
  %5 = getelementptr inbounds i8, ptr %0, i64 16
  %6 = load ptr, ptr %5, align 8
  tail call void @_ZN4Node17disconnect_inputsEP7Compile(ptr noundef nonnull align 8 dereferenceable(52) %3, ptr noundef %6) #13
  br label %7

7:                                                ; preds = %4, %1
  ret void
}